target datalayout = "e-m:e-p270:32:32-p271:32:32-p272:64:64-i64:64-i128:128-f80:128-n8:16:32:64-S128"
target triple = "x86_64-unknown-linux-gnu"

; Function Attrs: mustprogress uwtable
define void @ucal_setAttribute_75(ptr noundef %cal, i32 noundef %attr, i32 noundef %newValue) #1 {
entry:
  %cal.addr = alloca ptr, align 8
  %attr.addr = alloca i32, align 4
  %newValue.addr = alloca i32, align 4
  store ptr %cal, ptr %cal.addr, align 8
  store i32 %attr, ptr %attr.addr, align 4
  store i32 %newValue, ptr %newValue.addr, align 4
  %0 = load i32, ptr %attr.addr, align 4
  switch i32 %0, label %sw.epilog [
    i32 0, label %sw.bb
    i32 1, label %sw.bb1
    i32 2, label %sw.bb2
    i32 3, label %sw.bb4
    i32 4, label %sw.bb5
  ]

sw.bb:                                            ; preds = %entry
  %1 = load ptr, ptr %cal.addr, align 8
  %2 = load i32, ptr %newValue.addr, align 4
  %conv = trunc i32 %2 to i8
  call void @_ZN6icu_758Calendar10setLenientEa(ptr noundef nonnull align 8 dereferenceable(618) %1, i8 noundef signext %conv)
  br label %sw.epilog

sw.bb1:                                           ; preds = %entry
  %3 = load ptr, ptr %cal.addr, align 8
  %4 = load i32, ptr %newValue.addr, align 4
  call void @_ZN6icu_758Calendar17setFirstDayOfWeekE19UCalendarDaysOfWeek(ptr noundef nonnull align 8 dereferenceable(618) %3, i32 noundef %4)
  br label %sw.epilog

sw.bb2:                                           ; preds = %entry
  %5 = load ptr, ptr %cal.addr, align 8
  %6 = load i32, ptr %newValue.addr, align 4
  %conv3 = trunc i32 %6 to i8
  call void @_ZN6icu_758Calendar25setMinimalDaysInFirstWeekEh(ptr noundef nonnull align 8 dereferenceable(618) %5, i8 noundef zeroext %conv3)
  br label %sw.epilog

sw.bb4:                                           ; preds = %entry
  %7 = load ptr, ptr %cal.addr, align 8
  %8 = load i32, ptr %newValue.addr, align 4
  call void @_ZN6icu_758Calendar25setRepeatedWallTimeOptionE23UCalendarWallTimeOption(ptr noundef nonnull align 8 dereferenceable(618) %7, i32 noundef %8)
  br label %sw.epilog

sw.bb5:                                           ; preds = %entry
  %9 = load ptr, ptr %cal.addr, align 8
  %10 = load i32, ptr %newValue.addr, align 4
  call void @_ZN6icu_758Calendar24setSkippedWallTimeOptionE23UCalendarWallTimeOption(ptr noundef nonnull align 8 dereferenceable(618) %9, i32 noundef %10)
  br label %sw.epilog

sw.epilog:                                        ; preds = %sw.bb5, %sw.bb4, %sw.bb2, %sw.bb1, %sw.bb, %entry
  ret void
}