; Function Attrs: mustprogress uwtable
define void @ucal_setAttribute_75(ptr noundef %cal, i32 noundef %attr, i32 noundef %newValue) local_unnamed_addr #1 {
entry:
  switch i32 %attr, label %sw.epilog [
    i32 0, label %sw.bb
    i32 1, label %sw.bb1
    i32 2, label %sw.bb2
    i32 3, label %sw.bb4
    i32 4, label %sw.bb5
  ]

sw.bb:                                            ; preds = %entry
  %conv = trunc i32 %newValue to i8
  tail call void @_ZN6icu_758Calendar10setLenientEa(ptr noundef nonnull align 8 dereferenceable(618) %cal, i8 noundef signext %conv)
  br label %sw.epilog

sw.bb1:                                           ; preds = %entry
  tail call void @_ZN6icu_758Calendar17setFirstDayOfWeekE19UCalendarDaysOfWeek(ptr noundef nonnull align 8 dereferenceable(618) %cal, i32 noundef %newValue)
  br label %sw.epilog

sw.bb2:                                           ; preds = %entry
  %conv3 = trunc i32 %newValue to i8
  tail call void @_ZN6icu_758Calendar25setMinimalDaysInFirstWeekEh(ptr noundef nonnull align 8 dereferenceable(618) %cal, i8 noundef zeroext %conv3)
  br label %sw.epilog

sw.bb4:                                           ; preds = %entry
  tail call void @_ZN6icu_758Calendar25setRepeatedWallTimeOptionE23UCalendarWallTimeOption(ptr noundef nonnull align 8 dereferenceable(618) %cal, i32 noundef %newValue)
  br label %sw.epilog

sw.bb5:                                           ; preds = %entry
  tail call void @_ZN6icu_758Calendar24setSkippedWallTimeOptionE23UCalendarWallTimeOption(ptr noundef nonnull align 8 dereferenceable(618) %cal, i32 noundef %newValue)
  br label %sw.epilog

sw.epilog:                                        ; preds = %sw.bb5, %sw.bb4, %sw.bb2, %sw.bb1, %sw.bb, %entry
  ret void
}